; Function Attrs: mustprogress nounwind uwtable
define internal void @_ZN12_GLOBAL__N_115MCMachOStreamer19emitEHSymAttributesEPKN4llvm8MCSymbolEPS2_(ptr noundef nonnull align 8 dereferenceable(456) %0, ptr noundef nonnull %1, ptr noundef %2) unnamed_addr #0 align 2 {
  %4 = getelementptr inbounds nuw i8, ptr %0, i64 288
  %5 = load ptr, ptr %4, align 8
  %6 = tail call noundef zeroext i1 @_ZN4llvm11MCAssembler14registerSymbolERKNS_8MCSymbolE(ptr noundef nonnull align 8 dereferenceable(372) %5, ptr noundef nonnull align 8 dereferenceable(32) %1) #17
  %7 = getelementptr inbounds nuw i8, ptr %1, i64 8
  %8 = load i64, ptr %7, align 8
  %9 = and i64 %8, 32
  %.not = icmp eq i64 %9, 0
  br i1 %.not, label %15, label %10

10:                                               ; preds = %3
  %11 = load ptr, ptr %0, align 8
  %12 = getelementptr inbounds nuw i8, ptr %11, i64 296
  %13 = load ptr, ptr %12, align 8
  %14 = tail call noundef zeroext i1 %13(ptr noundef nonnull align 8 dereferenceable(456) %0, ptr noundef %2, i32 noundef 9) #17
  %.pre = load i64, ptr %7, align 8
  br label %15

15:                                               ; preds = %10, %3
  %16 = phi i64 [ %.pre, %10 ], [ %8, %3 ]
  %17 = and i64 %16, 549755813888
  %.not9 = icmp eq i64 %17, 0
  br i1 %.not9, label %23, label %18

18:                                               ; preds = %15
  %19 = load ptr, ptr %0, align 8
  %20 = getelementptr inbounds nuw i8, ptr %19, i64 296
  %21 = load ptr, ptr %20, align 8
  %22 = tail call noundef zeroext i1 %21(ptr noundef nonnull align 8 dereferenceable(456) %0, ptr noundef %2, i32 noundef 25) #17
  %.pre11 = load i64, ptr %7, align 8
  br label %23

23:                                               ; preds = %18, %15
  %24 = phi i64 [ %.pre11, %18 ], [ %16, %15 ]
  %25 = and i64 %24, 64
  %.not10 = icmp eq i64 %25, 0
  br i1 %.not10, label %31, label %26

26:                                               ; preds = %23
  %27 = load ptr, ptr %0, align 8
  %28 = getelementptr inbounds nuw i8, ptr %27, i64 296
  %29 = load ptr, ptr %28, align 8
  %30 = tail call noundef zeroext i1 %29(ptr noundef nonnull align 8 dereferenceable(456) %0, ptr noundef %2, i32 noundef 21) #17
  br label %31

31:                                               ; preds = %26, %23
  ret void
}